target datalayout = "e-m:e-p270:32:32-p271:32:32-p272:64:64-i64:64-i128:128-f80:128-n8:16:32:64-S128"
target triple = "x86_64-pc-linux-gnu"

%struct.H5VL_connector_t = type { ptr, i64, ptr, ptr }

@.str = private unnamed_addr constant [106 x i8] c"generated/home/dtcxzyw/WorkSpace/Projects/compilers/llvm-opt-benchmark/bench/hdf5/hdf5/src/H5VLcallback.c\00", align 1
@H5E_ARGS_g = external global i64, align 8
@H5E_BADTYPE_g = external global i64, align 8
@.str.1 = private unnamed_addr constant [23 x i8] c"not a VOL connector ID\00", align 1
@H5E_VOL_g = external global i64, align 8
@H5E_BADVALUE_g = external global i64, align 8
@.str.17 = private unnamed_addr constant [15 x i8] c"invalid object\00", align 1
@H5E_CANTOPENOBJ_g = external global i64, align 8
@__func__.H5VLdataset_open = private unnamed_addr constant [17 x i8] c"H5VLdataset_open\00", align 1
@.str.53 = private unnamed_addr constant [23 x i8] c"unable to open dataset\00", align 1

; Function Attrs: nounwind uwtable
define ptr @H5VLdataset_open(ptr noundef %0, ptr noundef %1, i64 noundef %2, ptr noundef %3, i64 noundef %4, i64 noundef %5, ptr noundef %6) #0 {
  %8 = alloca ptr, align 8
  %9 = alloca ptr, align 8
  %10 = alloca i64, align 8
  %11 = alloca ptr, align 8
  %12 = alloca i64, align 8
  %13 = alloca i64, align 8
  %14 = alloca ptr, align 8
  %15 = alloca ptr, align 8
  %16 = alloca ptr, align 8
  %17 = alloca i8, align 1
  store ptr %0, ptr %8, align 8, !tbaa !42
  store ptr %1, ptr %9, align 8, !tbaa !60
  store i64 %2, ptr %10, align 8, !tbaa !3
  store ptr %3, ptr %11, align 8, !tbaa !50
  store i64 %4, ptr %12, align 8, !tbaa !3
  store i64 %5, ptr %13, align 8, !tbaa !3
  store ptr %6, ptr %14, align 8, !tbaa !42
  call void @llvm.lifetime.start.p0(i64 8, ptr %15) #8
  call void @llvm.lifetime.start.p0(i64 8, ptr %16) #8
  store ptr null, ptr %16, align 8, !tbaa !42
  call void @llvm.lifetime.start.p0(i64 1, ptr %17) #8
  store i8 0, ptr %17, align 1, !tbaa !9
  %18 = load ptr, ptr %8, align 8, !tbaa !42
  %19 = icmp eq ptr null, %18
  br i1 %19, label %20, label %39

20:                                               ; preds = %7
  br label %21

21:                                               ; preds = %20
  br label %22

22:                                               ; preds = %21
  br label %23

23:                                               ; preds = %22
  %24 = load i64, ptr @H5E_ARGS_g, align 8, !tbaa !3
  %25 = load i64, ptr @H5E_BADVALUE_g, align 8, !tbaa !3
  %26 = call i32 (ptr, ptr, i32, i64, i64, ptr, ...) @H5E_printf_stack(ptr noundef @.str, ptr noundef @__func__.H5VLdataset_open, i32 noundef 2121, i64 noundef %24, i64 noundef %25, ptr noundef @.str.17)
  br label %27

27:                                               ; preds = %23
  br label %28

28:                                               ; preds = %27
  store i8 1, ptr %17, align 1, !tbaa !9
  %29 = load i8, ptr %17, align 1, !tbaa !9, !range !14, !noundef !15
  %30 = trunc i8 %29 to i1
  %31 = zext i1 %30 to i8
  store i8 %31, ptr %17, align 1, !tbaa !9
  br label %32

32:                                               ; preds = %28
  br label %33

33:                                               ; preds = %32
  br label %34

34:                                               ; preds = %33
  store ptr null, ptr %16, align 8, !tbaa !42
  br label %94

35:                                               ; No predecessors!
  br label %36

36:                                               ; preds = %35
  br label %37

37:                                               ; preds = %36
  br label %38

38:                                               ; preds = %37
  br label %39

39:                                               ; preds = %38, %7
  %40 = load i64, ptr %10, align 8, !tbaa !3
  %41 = call ptr @H5I_object_verify(i64 noundef %40, i32 noundef 9)
  store ptr %41, ptr %15, align 8, !tbaa !11
  %42 = icmp eq ptr null, %41
  br i1 %42, label %43, label %62

43:                                               ; preds = %39
  br label %44

44:                                               ; preds = %43
  br label %45

45:                                               ; preds = %44
  br label %46

46:                                               ; preds = %45
  %47 = load i64, ptr @H5E_ARGS_g, align 8, !tbaa !3
  %48 = load i64, ptr @H5E_BADTYPE_g, align 8, !tbaa !3
  %49 = call i32 (ptr, ptr, i32, i64, i64, ptr, ...) @H5E_printf_stack(ptr noundef @.str, ptr noundef @__func__.H5VLdataset_open, i32 noundef 2123, i64 noundef %47, i64 noundef %48, ptr noundef @.str.1)
  br label %50

50:                                               ; preds = %46
  br label %51

51:                                               ; preds = %50
  store i8 1, ptr %17, align 1, !tbaa !9
  %52 = load i8, ptr %17, align 1, !tbaa !9, !range !14, !noundef !15
  %53 = trunc i8 %52 to i1
  %54 = zext i1 %53 to i8
  store i8 %54, ptr %17, align 1, !tbaa !9
  br label %55

55:                                               ; preds = %51
  br label %56

56:                                               ; preds = %55
  br label %57

57:                                               ; preds = %56
  store ptr null, ptr %16, align 8, !tbaa !42
  br label %94

58:                                               ; No predecessors!
  br label %59

59:                                               ; preds = %58
  br label %60

60:                                               ; preds = %59
  br label %61

61:                                               ; preds = %60
  br label %62

62:                                               ; preds = %61, %39
  %63 = load ptr, ptr %8, align 8, !tbaa !42
  %64 = load ptr, ptr %9, align 8, !tbaa !60
  %65 = load ptr, ptr %15, align 8, !tbaa !11
  %66 = getelementptr inbounds nuw %struct.H5VL_connector_t, ptr %65, i32 0, i32 0
  %67 = load ptr, ptr %66, align 8, !tbaa !16
  %68 = load ptr, ptr %11, align 8, !tbaa !50
  %69 = load i64, ptr %12, align 8, !tbaa !3
  %70 = load i64, ptr %13, align 8, !tbaa !3
  %71 = load ptr, ptr %14, align 8, !tbaa !42
  %72 = call ptr @H5VL__dataset_open(ptr noundef %63, ptr noundef %64, ptr noundef %67, ptr noundef %68, i64 noundef %69, i64 noundef %70, ptr noundef %71)
  store ptr %72, ptr %16, align 8, !tbaa !42
  %73 = icmp eq ptr null, %72
  br i1 %73, label %74, label %93

74:                                               ; preds = %62
  br label %75

75:                                               ; preds = %74
  br label %76

76:                                               ; preds = %75
  br label %77

77:                                               ; preds = %76
  %78 = load i64, ptr @H5E_VOL_g, align 8, !tbaa !3
  %79 = load i64, ptr @H5E_CANTOPENOBJ_g, align 8, !tbaa !3
  %80 = call i32 (ptr, ptr, i32, i64, i64, ptr, ...) @H5E_printf_stack(ptr noundef @.str, ptr noundef @__func__.H5VLdataset_open, i32 noundef 2128, i64 noundef %78, i64 noundef %79, ptr noundef @.str.53)
  br label %81

81:                                               ; preds = %77
  br label %82

82:                                               ; preds = %81
  store i8 1, ptr %17, align 1, !tbaa !9
  %83 = load i8, ptr %17, align 1, !tbaa !9, !range !14, !noundef !15
  %84 = trunc i8 %83 to i1
  %85 = zext i1 %84 to i8
  store i8 %85, ptr %17, align 1, !tbaa !9
  br label %86

86:                                               ; preds = %82
  br label %87

87:                                               ; preds = %86
  br label %88

88:                                               ; preds = %87
  store ptr null, ptr %16, align 8, !tbaa !42
  br label %94

89:                                               ; No predecessors!
  br label %90

90:                                               ; preds = %89
  br label %91

91:                                               ; preds = %90
  br label %92

92:                                               ; preds = %91
  br label %93

93:                                               ; preds = %92, %62
  br label %94

94:                                               ; preds = %93, %88, %57, %34
  %95 = load i8, ptr %17, align 1, !tbaa !9, !range !14, !noundef !15
  %96 = trunc i8 %95 to i1
  %97 = xor i1 %96, true
  %98 = xor i1 %97, true
  %99 = zext i1 %98 to i32
  %100 = sext i32 %99 to i64
  %101 = call i64 @llvm.expect.i64(i64 %100, i64 0)
  %102 = icmp ne i64 %101, 0
  br i1 %102, label %103, label %105

103:                                              ; preds = %94
  %104 = call i32 @H5E_dump_api_stack()
  br label %105

105:                                              ; preds = %103, %94
  %106 = load ptr, ptr %16, align 8, !tbaa !42
  call void @llvm.lifetime.end.p0(i64 1, ptr %17) #8
  call void @llvm.lifetime.end.p0(i64 8, ptr %16) #8
  call void @llvm.lifetime.end.p0(i64 8, ptr %15) #8
  ret ptr %106
}