; Function Attrs: nounwind uwtable
define ptr @H5VLdataset_open(ptr noundef %0, ptr noundef %1, i64 noundef %2, ptr noundef %3, i64 noundef %4, i64 noundef %5, ptr noundef %6) local_unnamed_addr #0 {
  %8 = icmp eq ptr %0, null
  br i1 %8, label %9, label %13, !prof !41

9:                                                ; preds = %7
  %10 = load i64, ptr @H5E_ARGS_g, align 8, !tbaa !3
  %11 = load i64, ptr @H5E_BADVALUE_g, align 8, !tbaa !3
  %12 = tail call i32 (ptr, ptr, i32, i64, i64, ptr, ...) @H5E_printf_stack(ptr noundef nonnull @.str, ptr noundef nonnull @__func__.H5VLdataset_open, i32 noundef 2121, i64 noundef %10, i64 noundef %11, ptr noundef nonnull @.str.17) #7
  br label %28

13:                                               ; preds = %7
  %14 = tail call ptr @H5I_object_verify(i64 noundef %2, i32 noundef 9) #7
  %15 = icmp eq ptr %14, null
  br i1 %15, label %16, label %20, !prof !41

16:                                               ; preds = %13
  %17 = load i64, ptr @H5E_ARGS_g, align 8, !tbaa !3
  %18 = load i64, ptr @H5E_BADTYPE_g, align 8, !tbaa !3
  %19 = tail call i32 (ptr, ptr, i32, i64, i64, ptr, ...) @H5E_printf_stack(ptr noundef nonnull @.str, ptr noundef nonnull @__func__.H5VLdataset_open, i32 noundef 2123, i64 noundef %17, i64 noundef %18, ptr noundef nonnull @.str.1) #7
  br label %28

20:                                               ; preds = %13
  %21 = load ptr, ptr %14, align 8, !tbaa !7
  %22 = tail call fastcc ptr @H5VL__dataset_open(ptr noundef nonnull %0, ptr noundef %1, ptr noundef %21, ptr noundef %3, i64 noundef %4, i64 noundef %5, ptr noundef %6)
  %23 = icmp eq ptr %22, null
  br i1 %23, label %24, label %30, !prof !41

24:                                               ; preds = %20
  %25 = load i64, ptr @H5E_VOL_g, align 8, !tbaa !3
  %26 = load i64, ptr @H5E_CANTOPENOBJ_g, align 8, !tbaa !3
  %27 = tail call i32 (ptr, ptr, i32, i64, i64, ptr, ...) @H5E_printf_stack(ptr noundef nonnull @.str, ptr noundef nonnull @__func__.H5VLdataset_open, i32 noundef 2128, i64 noundef %25, i64 noundef %26, ptr noundef nonnull @.str.53) #7
  br label %28

28:                                               ; preds = %9, %16, %24
  %29 = tail call i32 @H5E_dump_api_stack() #7
  br label %30

30:                                               ; preds = %20, %28
  %.01319 = phi ptr [ null, %28 ], [ %22, %20 ]
  ret ptr %.01319
}